; Function Attrs: mustprogress nounwind uwtable
define void @_ZN20DispersionCorrection17InteractionParamsD2Ev(ptr noundef nonnull align 8 captures(none) dereferenceable(32) %0) unnamed_addr #0 align 2 personality ptr @__gxx_personality_v0 {
  %2 = load ptr, ptr %0, align 8, !tbaa !4
  %.not.i = icmp eq ptr %2, null
  br i1 %.not.i, label %_ZNSt10unique_ptrI12t_forcetableSt14default_deleteIS0_EED2Ev.exit, label %_ZNKSt14default_deleteI12t_forcetableEclEPS0_.exit.i

_ZNKSt14default_deleteI12t_forcetableEclEPS0_.exit.i: ; preds = %1
  tail call void @_ZN12t_forcetableD1Ev(ptr noundef nonnull align 8 dereferenceable(56) %2) #17
  tail call void @_ZdlPvm(ptr noundef nonnull %2, i64 noundef 56) #18
  br label %_ZNSt10unique_ptrI12t_forcetableSt14default_deleteIS0_EED2Ev.exit

_ZNSt10unique_ptrI12t_forcetableSt14default_deleteIS0_EED2Ev.exit: ; preds = %1, %_ZNKSt14default_deleteI12t_forcetableEclEPS0_.exit.i
  store ptr null, ptr %0, align 8, !tbaa !4
  ret void
}